; Function Attrs: nounwind uwtable
define ptr @fdt_getprop_namelen(ptr noundef %0, i32 noundef %1, ptr noundef readonly captures(none) %2, i32 noundef %3, ptr noundef captures(address_is_null) %4) local_unnamed_addr #0 {
  %6 = alloca i32, align 4
  call void @llvm.lifetime.start.p0(i64 4, ptr nonnull %6) #9
  %7 = call fastcc ptr @fdt_get_property_namelen_(ptr noundef %0, i32 noundef %1, ptr noundef %2, i32 noundef %3, ptr noundef %4, ptr noundef nonnull %6)
  %.not = icmp eq ptr %7, null
  br i1 %.not, label %55, label %8

8:                                                ; preds = %5
  %9 = getelementptr inbounds nuw i8, ptr %0, i64 20
  %10 = load i8, ptr %9, align 1, !tbaa !3
  %11 = zext i8 %10 to i32
  %12 = shl nuw i32 %11, 24
  %13 = getelementptr inbounds nuw i8, ptr %0, i64 21
  %14 = load i8, ptr %13, align 1, !tbaa !3
  %15 = zext i8 %14 to i32
  %16 = shl nuw nsw i32 %15, 16
  %17 = or disjoint i32 %16, %12
  %18 = getelementptr inbounds nuw i8, ptr %0, i64 22
  %19 = load i8, ptr %18, align 1, !tbaa !3
  %20 = zext i8 %19 to i32
  %21 = shl nuw nsw i32 %20, 8
  %22 = or disjoint i32 %17, %21
  %23 = getelementptr inbounds nuw i8, ptr %0, i64 23
  %24 = load i8, ptr %23, align 1, !tbaa !3
  %25 = zext i8 %24 to i32
  %26 = or disjoint i32 %22, %25
  %27 = icmp ult i32 %26, 16
  br i1 %27, label %28, label %53

28:                                               ; preds = %8
  %29 = load i32, ptr %6, align 4, !tbaa !6
  %30 = and i32 %29, 7
  %.not11 = icmp eq i32 %30, 4
  br i1 %.not11, label %53, label %31

31:                                               ; preds = %28
  %32 = getelementptr inbounds nuw i8, ptr %7, i64 4
  %33 = load i8, ptr %32, align 1, !tbaa !3
  %34 = zext i8 %33 to i32
  %35 = shl nuw i32 %34, 24
  %36 = getelementptr inbounds nuw i8, ptr %7, i64 5
  %37 = load i8, ptr %36, align 1, !tbaa !3
  %38 = zext i8 %37 to i32
  %39 = shl nuw nsw i32 %38, 16
  %40 = or disjoint i32 %39, %35
  %41 = getelementptr inbounds nuw i8, ptr %7, i64 6
  %42 = load i8, ptr %41, align 1, !tbaa !3
  %43 = zext i8 %42 to i32
  %44 = shl nuw nsw i32 %43, 8
  %45 = or disjoint i32 %40, %44
  %46 = getelementptr inbounds nuw i8, ptr %7, i64 7
  %47 = load i8, ptr %46, align 1, !tbaa !3
  %48 = zext i8 %47 to i32
  %49 = or disjoint i32 %45, %48
  %50 = icmp ugt i32 %49, 7
  br i1 %50, label %51, label %53

51:                                               ; preds = %31
  %52 = getelementptr inbounds nuw i8, ptr %7, i64 16
  br label %55

53:                                               ; preds = %31, %28, %8
  %54 = getelementptr inbounds nuw i8, ptr %7, i64 12
  br label %55

55:                                               ; preds = %5, %53, %51
  %.0 = phi ptr [ %52, %51 ], [ %54, %53 ], [ null, %5 ]
  call void @llvm.lifetime.end.p0(i64 4, ptr nonnull %6) #9
  ret ptr %.0
}